1000 0000: 0011 0000 0000 0000            LAD     GR0     #00
1000 0001: 0011 0001 0000 0001            LAD     GR1     #01
1000 0010: 0011 0010 0000 0010            LAD     GR2     #02
1000 0011: 0011 1010 0001 0000            LAD     GR10    #10     ; GR10 = 16
1000 0100: 0010 0011 0000 0000            LD2     GR3     #00     ; x1 = mem[#00]
1000 0101: 0001 0100 0000 0000            LD1     GR4     GR0     ; x0 = 0
1000 0110: 0001 0101 0000 0000            LD1     GR5     GR0     ; a = 0
1000 0111: 0001 0110 0000 0000            LD1     GR6     GR0     ; y = 0
1000 1000: 0001 0111 0000 0000            LD1     GR7     GR0     ; i = 0
1000 1001: 0001 1000 0000 0000            LD1     GR8     GR0     ; j = 0
1000 1010: 0001 1001 0000 0011            LD1     GR9     GR3     ; t = x1
1000 1011: 1000 1001 0000 0001    LOOP0   SR      GR9     GR1     ; ZF = (t == 0) ? 1 : 0
1000 1100: 1011 0000 1000 1111            JZE             QUIT0
1000 1101: 0101 0111 0000 0001            ADD     GR7     GR1     ; i += 1
1000 1110: 1010 0000 1000 1011            jMP             LOOP0
1000 1111: 0101 0111 0000 1010    QUIT0   ADD     GR7     GR10
1001 0000: 0001 1001 0000 0111            LD1     GR9     GR7     ; GR9 = tmp(i & 1)
1001 0001: 1001 1001 0000 0001            NAND    GR9     GR1
1001 0010: 1001 1001 0000 1001            NAND    GR9     GR9
1001 0011: 0101 0111 0000 1001            ADD     GR7     GR9     ; i += i & 1
1001 0100: 0110 0111 0000 0000    LOOP1   SUB     GR7     GR0     ; SF = (i < 0) ? 1 : 0
1001 0101: 1100 0000 1011 0100            JMI             QUIT2
1001 0110: 0001 1000 0000 0111            LD1     GR8     GR7     ; j = i - 16
1001 0111: 0110 1000 0000 1010            SUB     GR8     GR10
1001 1000: 0111 0101 0000 0001            SL      GR5     GR1     ; a <<= 1
1001 1001: 0111 0110 0000 0001            SL      GR6     GR1     ; y <<= 1
1001 1010: 0001 1001 0000 0110            LD1     GR9     GR6     ; y2 = (y | #0001)
1001 1011: 0001 1011 0000 0001            LD1     GR11    GR1
1001 1100: 1001 1001 0000 1001            NAND    GR9     GR9
1001 1101: 1001 1011 0000 1011            NAND    GR11    GR11
1001 1110: 1001 1001 0000 1011            NAND    GR9     GR11
1001 1111: 1010 1111 1100 0011    GOFUNC0 JMP     GR15    FUNC0   ; GR14 = (j < 0) ? (x1 << -j) : (x1 >> j)
1010 0000: 0110 1110 0000 1001            SUB     GR14    GR9
1010 0001: 1101 0000 1010 0011    IF0     JOV             ENDIF0
1010 0010: 1010 0000 1010 0111            JMP             ELSE
1010 0011: 0001 1011 0000 0100    ENDIF0  LD1     GR11    GR4     ; GR11 = tmp(x0)
1010 0100: 1000 1011 0000 0111            SR      GR11    GR7
1010 0101: 0110 1011 0000 1001            SUB     GR11    GR9
1010 0110: 1101 0000 1011 0010    IF1     JOV             ENDIF1
1010 0111: 0101 0101 0000 0001    ELSE    ADD     GR5     GR1     ; a += 1
1010 1000: 0101 0110 0000 0001            ADD     GR6     GR1     ; y += 1
1010 1001: 1010 1111 1101 0111    GOFUNC1 JMP     GR15    FUNC1   ; GR14 = (j < 0) ? (y >> -j) : (y << j)
1010 1010: 0110 0011 0000 1110            SUB     GR3     GR14
1010 1011: 0001 1011 0000 0110            LD1     GR11    GR6     ; GR11 = tmp(y)
1010 1100: 0101 0110 0000 0001            ADD     GR6     GR1     ; y += 1
1010 1101: 0111 1011 0000 0111            SL      GR11    GR7
1010 1110: 0110 0100 0000 1011            SUB     GR4     GR11
1010 1111: 1100 0000 1011 0001    _IF2    JMI             _PROC2
1011 0000: 1010 0000 1011 0010            JMP             ENDIF1
1011 0001: 0110 0011 0000 0001    _PROC2  SUB     GR3     GR1
1011 0010: 0110 0111 0000 0010    ENDIF1  SUB     GR7     GR2
1011 0011: 1010 0000 1001 0100            JMP             LOOP1
1011 0100: 0011 0011 0000 0011    QUIT2   LAD     GR3     #03
1011 0101: 0011 0100 0000 0100            LAD     GR4     #04
1011 0110: 0011 1001 0000 1000            LAD     GR9     #08
1011 0111: 0011 1011 0000 1100            LAD     GR11    #0C
1011 1000: 0001 0110 0000 0101            LD1     GR6     GR5     ; GR5 = GR4(7 downto 4)
1011 1001: 0001 0111 0000 0101            LD1     GR7     GR5     ; GR6 = GR4(11 downto 8)
1011 1010: 0001 1000 0000 0101            LD1     GR8     GR5     ; GR7 = GR4(15 downto 12)
1011 1011: 1000 0110 0000 0100            SR      GR6     GR4
1011 1100: 1000 0111 0000 1001            SR      GR7     GR9
1011 1101: 1000 1000 0000 1011            SR      GR8     GR11
1011 1110: 1111 1000 0000 0000            DISP    GR8     GR0     ; 7seg(0) <- GR7
1011 1111: 1111 0111 0000 0001            DISP    GR7     GR1     ; 7seg(1) <- GR6
1100 0000: 1111 0110 0000 0010            DISP    GR6     GR2     ; 7seg(2) <- GR5
1100 0001: 1111 0101 0000 0011            DISP    GR5     GR3     ; 7seg(3) <- GR4
1100 0010: 0000 0000 0000 0000            HALT
1100 0011: 0110 1000 0000 0000    FUNC0   SUB     GR8     GR0     ; SF = (j < 0) ? 1 : 0
1100 0100: 1100 0000 1100 1000            JMI             _MI0   
1100 0101: 0001 1110 0000 0011    _PL0    LD1     GR14    GR3     ; GR14 = tmp(x1)
1100 0110: 1000 1110 0000 1000            SR      GR14    GR8
1100 0111: 1110 1111 0000 0000            RJMP    GR15
1100 1000: 0011 1101 0000 0000    _MI0    LAD     GR13    #00     ; GR13 = tmp(-j)
1100 1001: 0110 1101 0000 1000            SUB     GR13    GR8
1100 1010: 0011 1100 1000 0000            LAD     GR12    #80     ; GR12 = 32768
1100 1011: 0011 1011 0000 1000            LAD     GR11    #08
1100 1100: 0111 1100 0000 1011            SL      GR12    GR11
1100 1101: 0001 1011 0000 1101            LD1     GR11    GR13    ; GR11 = tmp(-j-1)
1100 1110: 0110 1011 0000 0001            SUB     GR11    GR1
1100 1111: 1000 1100 0000 1011            SR      GR12    GR11    ; GR12 = 32768 >> (-j-1)
1101 0000: 0001 1110 0000 0011            LD1     GR14    GR3     ; GR14 = tmp(x1)
1101 0001: 0110 1100 0000 1110            SUB     GR12    GR14
1101 0010: 1101 0000 1101 0101            JOV             _OVER
1101 0011: 0111 1110 0000 1101            SL      GR14    GR13
1101 0100: 1110 1111 0000 0000            RJMP    GR15
1101 0101: 0001 1110 0000 1001    _OVER   LD1     GR14    GR9
1101 0110: 1110 1111 0000 0000            RJMP    GR15
1101 0111: 0110 1000 0000 0000    FUNC1   SUB     GR8     GR0     ; SF = (j < 0) ? 1 : 0
1101 1000: 1100 0000 1101 1100            JMI             _MI1
1101 1001: 0001 1110 0000 0110    _PL1    LD1     GR14    GR6     ; GR14 = tmp(y)
1101 1010: 0111 1110 0000 1000            SL      GR14    GR8
1101 1011: 1110 1111 0000 0000            RJMP    GR15
1101 1100: 0011 1101 0000 0000    _MI1    LAD     GR13    #00     ; GR13 = tmp(-j)
1101 1101: 0110 1101 0000 1000            SUB     GR13    GR8
1101 1110: 0001 1110 0000 0110            LD1     GR14    GR6     ; GR14 = tmp(y)
1101 1111: 1000 1110 0000 1101            SR      GR14    GR13
1110 0000: 1110 1111 0000 0000            RJMP    GR15
         