1000 0000: 0011 0000 0000 0000            LAD     GR0     #00
1000 0001: 0011 0001 0000 0001            LAD     GR1     #01
1000 0010: 0011 0010 0000 0002            LAD     GR2     #02
1000 0011: 0010 0011 0000 0000            LD2     GR3     #00     ; x1 = mem[#00]
1000 0100: 0001                           LD1     GR4     GR0     ; x0 = 0
1000 0101: 0001                           LD1     GR5     GR0     ; a = 0
1000 0110: 0001                           LD1     GR6     GR0     ; y = 0
1000 0111: 0001                           LD1     GR7     GR0     ; i = 0
1000 1000: 0001                           LD1     GR8     GR0     ; j = 0
1000 1001: 0001                           LD1     GR9     GR3     ; t = x1
1000 1010: 1000                   LOOP0   SR      GR9     GR1     ; ZF = (t == 0) ? 1 : 0
1000 1011: 1011                           JZE             QUIT0
1000 1100: 0101                           ADD     GR7     GR1
1000 1101: 1010                           jMP             LOOP0
1000 1110: 0011                   QUIT0   LAD     GR10    #10
1000 1111: 0101                           ADD     GR7     GR10
1001 0000: 0001                           LD1     GR9     GR7     ; GR9  = tmp(i & 1)
1001 0001: 1001                           NAND    GR9     GR1
1001 0010: 1001                           NAND    GR9     GR9 
1001 0011: 0101                           ADD     GR7     GR9     ; i += i & 1     
1001 0100: 0110                   LOOP1   SUB     GR7     GR0     ; SF = (i < 0) ? 1 : 0
1001 0101: 1100                           JMI             QUIT2
1001 0110: 0001                           LD1     GR8     GR7     ; j = i - 16
1001 0111: 0011                           LAD     GR10    #10
1001 1000: 0110                           SUB     GR8     GR10
1001 1001: 0111                           SL      GR5     GR1     ; a <<= 1
1001 1010: 0111                           SL      GR6     GR1     ; y <<= 1
1001 1011: 0001                           LD1     GR9     GR6     ; GR9  = tmp(y)
1001 1100: 0001                           LD1     GR10    GR1     ; GR10 = tmp(#0001)
1001 1101: 1001                           NAND    GR9     GR9 
1001 1110: 1001                           NAND    GR10    GR10
1001 1111: 1001                           NAND    GR9     GR10    ; GR9 = y2 = (y | #0001)
1010 0000: 1010                   GOTO1   JMP     GR15    FUNC1   ; GR14 = (j < 0) ? (x1 << -j) : (x1 >> j)
1010 0001: 0110                           SUB     GR14    GR9     
1010 0010: 1100                   IF0     JMI             ENDIF0
1010 0011: 0101                   ELSE    ADD     GR4     GR1     ; a += 1
1010 0100: 0101                           ADD     GR5     GR1     ; y += 1
1010 0101: 1010                           JMP     GR15    FUNC2   ; GR14 = (j < 0) ? (y >> -j) : (y << j)
1010 0110: 0110                           SUB     GR3     GR14
1010 0111: 0001                           LD1     GR10    GR6     ; GR10 = tmp(y << i)
1010 1000: 0101                           ADD     GR6     GR1     ; y += 1
1010 1001: 0111                           SL      GR10    GR7
1010 1010: 0110                           SUB     GR4     GR10
1010 1011: 1100                   _IF2    JMI             _PROC2
1010 1100: 1010                           JMP             ENDIF1
1010 1101: 0110                   _PROC2  SUB     GR3     GR1
1010 1110: 1010                           JMP             ENDIF1
1010 1111: 0001                   ENDIF0  LD1     GR10    GR4     ; GR10 = tmp(x0)
1011 0000: 1000                           SR      GR10    GR7
1011 0001: 0110                           SUB     GR10    GR9
1011 0010: 1100                   IF1     JMI             ENDIF1
1011 0011: 1010                           JMP             ELSE
1011 0100: 0110                   ENDIF1  SUB     GR7     GR2  
1011 0101: 1010                           JMP             LOOP1
1011 0110: 0011                   QUIT2   LAD     GR3     #03     ; 7seg(3) = mem[#03]
1011 0111: 0011                           LAD     GR4     #04     ; 7seg(4) = mem[#04]
1011 1000: 0001                           LD1     GR6     GR5     ; GR5 = GR4(7 downto 4)
1011 1001: 0001                           LD1     GR7     GR5     ; GR6 = GR4(11 downto 8)
1011 1010: 0001                           LD1     GR8     GR5     ; GR7 = GR4(15 downto 12)
1011 1011: 0011                           LAD     GR9     #08
1011 1100: 0011                           LAD     GR10    #0C
1011 1101: 1000                           SR      GR6     GR4
1011 1110: 1000                           SR      GR7     GR9
1011 1111: 1000                           SR      GR8     GR10
1100 0000: 1111                           DISP    GR8     GR0     ; 7seg(1) <- GR7
1100 0001: 1111                           DISP    GR7     GR1     ; 7seg(2) <- GR6
1100 0010: 1111                           DISP    GR6     GR2     ; 7seg(3) <- GR5
1100 0011: 1111                           DISP    GR5     GR3     ; 7seg(4) <- GR4
1100 0100: 0000                           HALT
1100 0101: 0110                   FUNC1   SUB     GR8     GR0     ; SF = (j < 0) ? 1 : 0
1100 0110: 1100                           JMI             _MI1   
1100 0111: 0001                   _PL1    LD1     GR14    GR3     ; GR14 = tmp(x1)
1100 1000: 1000                           SR      GR14    GR8
1100 1001: 1110                           RJMP    GR15            ; Return
1100 1010: 0110                   _MI1    SUB     GR0     GR8     ; GR0  = tmp(-j)
1100 1011: 0001                           LD1     GR14    GR3     ; GR14 = tmp(x1)
1100 1100: 0111                           SL      GR14    GR0
1100 1101: 0011                           LAD     GR0     #00
1100 1110: 1110                           RJMP    GR15            ; Return
1100 1111: 0110                   FUNC2   SUB     GR8     GR0     ; SF = (j < 0) ? 1 : 0
1101 0000: 1100                           JMI             _MI1   
1101 0001: 0001                   _PL2    LD1     GR14    GR6     ; GR14 = tmp(y)
1101 0010: 0111                           SL      GR14    GR8
1101 0011: 0110                           SUB     GR3     GR14
1101 0100: 1110                           RJMP    GR15            ; Return
1101 0101: 0110                   _MI2    SUB     GR0     GR8     ; GR0  = tmp(-j)
1101 0110: 0001                           LD1     GR14    GR6     ; GR14 = tmp(y)
1101 0111: 1000                           SR      GR14    GR0
1101 1000: 0110                           SUB     GR3     GR14
1101 1001: 0011                           LAD     GR0     #00
1101 1010: 1110                           RJMP    GR15            ; Return
         